(lp0
(lp1
S'0'
p2
aS'To add an activity, click the cashew on the top right of the desktop, zoom out, press add activity, click the zoom in magnifying glass on the new activity.'
p3
aS'OxDeadC0de'
p4
aa(lp5
S'1'
p6
aS'To download new widgets from the internet, from right clicking on the desktop or left click on the cashew - press Add Widgets, Install new widgets, Download new plasma widgets. Also check out <a href=kde-look.org>kde-look.org</a> for even more Plasma widgets!'
p7
aS'OxDeadC0de'
p8
aa(lp9
S'2'
p10
aS'In KDE4.2 your taskbar can be multiple lines! Right click on the taskbar, task manager settings, maximum rows. Also try Force row settings.'
p11
aS'OxDeadC0de'
p12
aa(lp13
S'3'
p14
aS'You can drag and drop images straight from ksnapshot onto the image pastebin widget! Share your screenshots instantly.'
p15
aS'OxDeadC0de'
p16
aa(lp17
S'4'
p18
aS'You can drag and drop parts of the Lancelot widget straight onto the desktop for quick access to your applications.'
p19
aS'OxDeadC0de'
p20
aa(lp21
S'5'
p22
aS'Do you like it more compact? You can change the system-wide fontsize by changing DPI in System Settings->Appearance->Fonts.'
p23
aS'antu'
p24
aa(lp25
S'6'
p26
aS'You can always turn off these annoying tips.'
p27
aS'OxDeadC0de'
p28
aa.